target datalayout = "e-m:e-p270:32:32-p271:32:32-p272:64:64-i64:64-i128:128-f80:128-n8:16:32:64-S128"
target triple = "x86_64-unknown-linux-gnu"

%struct.BdrvDirtyBitmap = type { ptr, ptr, i8, ptr, ptr, i64, i8, i32, i8, i8, i8, i8, %struct.anon }
%struct.anon = type { ptr, ptr }
%struct.BlockDriverState = type { i32, i8, i8, i8, i8, i8, ptr, ptr, ptr, %struct.anon.0, i8, [4096 x i8], [4096 x i8], [4096 x i8], [16 x i8], ptr, [4096 x i8], %struct.BlockLimits, i32, i32, i32, i32, [32 x i8], %union.anon, %union.anon.1, %union.anon.2, i32, [16 x %struct.anon.3], ptr, %struct.anon.4, ptr, ptr, %struct.anon.5, ptr, ptr, i32, ptr, i64, i64, %struct.QemuMutex, %struct.anon.6, %struct.Stat64, i32, i32, i32, i32, i32, i32, %struct.QemuMutex, %struct.anon.7, %struct.CoQueue, i8, i32, i8, %struct.CoMutex, ptr, ptr }
%struct.anon.0 = type { ptr }
%struct.BlockLimits = type { i32, i64, i32, i64, i32, i32, i32, i64, i32, i64, i64, i32, i8, i32, i32, i32, i32, i32, i32, i32 }
%union.anon = type { %struct.QTailQLink }
%struct.QTailQLink = type { ptr, ptr }
%union.anon.1 = type { %struct.QTailQLink }
%union.anon.2 = type { %struct.QTailQLink }
%struct.anon.3 = type { ptr }
%struct.anon.4 = type { ptr }
%struct.anon.5 = type { ptr }
%struct.anon.6 = type { ptr }
%struct.Stat64 = type { i64 }
%struct.QemuMutex = type { %union.pthread_mutex_t, i8 }
%union.pthread_mutex_t = type { %struct.__pthread_mutex_s }
%struct.__pthread_mutex_s = type { i32, i32, i32, i32, i32, i16, i16, %struct.__pthread_internal_list }
%struct.__pthread_internal_list = type { ptr, ptr }
%struct.anon.7 = type { ptr }
%struct.CoQueue = type { %struct.anon.8 }
%struct.anon.8 = type { ptr, ptr }
%struct.CoMutex = type { i32, ptr, %struct.anon.9, %struct.anon.9, i32, i32, ptr }
%struct.anon.9 = type { ptr }

@.str = private unnamed_addr constant [5 x i8] c"name\00", align 1
@.str.1 = private unnamed_addr constant [29 x i8] c"../qemu/block/dirty-bitmap.c\00", align 1
@__PRETTY_FUNCTION__.bdrv_find_dirty_bitmap = private unnamed_addr constant [74 x i8] c"BdrvDirtyBitmap *bdrv_find_dirty_bitmap(BlockDriverState *, const char *)\00", align 1

; Function Attrs: nounwind sspstrong uwtable
define dso_local ptr @bdrv_find_dirty_bitmap(ptr noundef %bs, ptr noundef %name) #0 {
entry:
  %retval = alloca ptr, align 8
  %bs.addr = alloca ptr, align 8
  %name.addr = alloca ptr, align 8
  %bm = alloca ptr, align 8
  store ptr %bs, ptr %bs.addr, align 8
  store ptr %name, ptr %name.addr, align 8
  %0 = load ptr, ptr %name.addr, align 8
  %tobool = icmp ne ptr %0, null
  br i1 %tobool, label %if.then, label %if.else

if.then:                                          ; preds = %entry
  br label %if.end

if.else:                                          ; preds = %entry
  call void @__assert_fail(ptr noundef @.str, ptr noundef @.str.1, i32 noundef 89, ptr noundef @__PRETTY_FUNCTION__.bdrv_find_dirty_bitmap) #11
  unreachable

if.end:                                           ; preds = %if.then
  %1 = load ptr, ptr %bs.addr, align 8
  %dirty_bitmaps = getelementptr inbounds %struct.BlockDriverState, ptr %1, i32 0, i32 40
  %lh_first = getelementptr inbounds %struct.anon.6, ptr %dirty_bitmaps, i32 0, i32 0
  %2 = load ptr, ptr %lh_first, align 8
  store ptr %2, ptr %bm, align 8
  br label %for.cond

for.cond:                                         ; preds = %for.inc, %if.end
  %3 = load ptr, ptr %bm, align 8
  %tobool1 = icmp ne ptr %3, null
  br i1 %tobool1, label %for.body, label %for.end

for.body:                                         ; preds = %for.cond
  %4 = load ptr, ptr %bm, align 8
  %name2 = getelementptr inbounds %struct.BdrvDirtyBitmap, ptr %4, i32 0, i32 4
  %5 = load ptr, ptr %name2, align 8
  %tobool3 = icmp ne ptr %5, null
  br i1 %tobool3, label %land.lhs.true, label %if.end7

land.lhs.true:                                    ; preds = %for.body
  %6 = load ptr, ptr %name.addr, align 8
  %7 = load ptr, ptr %bm, align 8
  %name4 = getelementptr inbounds %struct.BdrvDirtyBitmap, ptr %7, i32 0, i32 4
  %8 = load ptr, ptr %name4, align 8
  %call = call i32 @strcmp(ptr noundef %6, ptr noundef %8) #12
  %tobool5 = icmp ne i32 %call, 0
  br i1 %tobool5, label %if.end7, label %if.then6

if.then6:                                         ; preds = %land.lhs.true
  %9 = load ptr, ptr %bm, align 8
  store ptr %9, ptr %retval, align 8
  br label %return

if.end7:                                          ; preds = %land.lhs.true, %for.body
  br label %for.inc

for.inc:                                          ; preds = %if.end7
  %10 = load ptr, ptr %bm, align 8
  %list = getelementptr inbounds %struct.BdrvDirtyBitmap, ptr %10, i32 0, i32 12
  %le_next = getelementptr inbounds %struct.anon, ptr %list, i32 0, i32 0
  %11 = load ptr, ptr %le_next, align 8
  store ptr %11, ptr %bm, align 8
  br label %for.cond, !llvm.loop !5

for.end:                                          ; preds = %for.cond
  store ptr null, ptr %retval, align 8
  br label %return

return:                                           ; preds = %for.end, %if.then6
  %12 = load ptr, ptr %retval, align 8
  ret ptr %12
}