; Function Attrs: nounwind sspstrong uwtable
define dso_local ptr @bdrv_find_dirty_bitmap(ptr noundef readonly captures(none) %bs, ptr noundef readonly %name) local_unnamed_addr #0 {
entry:
  %tobool.not = icmp eq ptr %name, null
  br i1 %tobool.not, label %if.else, label %if.end

if.else:                                          ; preds = %entry
  tail call void @__assert_fail(ptr noundef nonnull @.str, ptr noundef nonnull @.str.1, i32 noundef 89, ptr noundef nonnull @__PRETTY_FUNCTION__.bdrv_find_dirty_bitmap) #15
  unreachable

if.end:                                           ; preds = %entry
  %dirty_bitmaps = getelementptr inbounds nuw i8, ptr %bs, i64 16952
  %bm.06 = load ptr, ptr %dirty_bitmaps, align 8
  %tobool1.not7 = icmp eq ptr %bm.06, null
  br i1 %tobool1.not7, label %return, label %for.body

for.body:                                         ; preds = %if.end, %for.inc
  %bm.08 = phi ptr [ %bm.0, %for.inc ], [ %bm.06, %if.end ]
  %name2 = getelementptr inbounds nuw i8, ptr %bm.08, i64 32
  %0 = load ptr, ptr %name2, align 8
  %tobool3.not = icmp eq ptr %0, null
  br i1 %tobool3.not, label %for.inc, label %land.lhs.true

land.lhs.true:                                    ; preds = %for.body
  %call = tail call i32 @strcmp(ptr noundef nonnull dereferenceable(1) %name, ptr noundef nonnull dereferenceable(1) %0) #16
  %tobool5.not = icmp eq i32 %call, 0
  br i1 %tobool5.not, label %return, label %for.inc

for.inc:                                          ; preds = %for.body, %land.lhs.true
  %list = getelementptr inbounds nuw i8, ptr %bm.08, i64 64
  %bm.0 = load ptr, ptr %list, align 8
  %tobool1.not = icmp eq ptr %bm.0, null
  br i1 %tobool1.not, label %return, label %for.body, !llvm.loop !5

return:                                           ; preds = %land.lhs.true, %for.inc, %if.end
  %bm.0.lcssa = phi ptr [ null, %if.end ], [ null, %for.inc ], [ %bm.08, %land.lhs.true ]
  ret ptr %bm.0.lcssa
}